target datalayout = "e-m:e-p270:32:32-p271:32:32-p272:64:64-i64:64-i128:128-f80:128-n8:16:32:64-S128"
target triple = "x86_64-pc-linux-gnu"

; Function Attrs: nounwind uwtable
define internal void @y216le_UV_c(ptr noundef %0, ptr noundef %1, ptr noundef %2, ptr noundef %3, ptr noundef %4, i32 noundef %5, ptr noundef %6, ptr noundef %7) #2 {
  %9 = alloca ptr, align 8
  %10 = alloca ptr, align 8
  %11 = alloca ptr, align 8
  %12 = alloca ptr, align 8
  %13 = alloca ptr, align 8
  %14 = alloca i32, align 4
  %15 = alloca ptr, align 8
  %16 = alloca ptr, align 8
  %17 = alloca i32, align 4
  store ptr %0, ptr %9, align 8, !tbaa !34
  store ptr %1, ptr %10, align 8, !tbaa !34
  store ptr %2, ptr %11, align 8, !tbaa !34
  store ptr %3, ptr %12, align 8, !tbaa !34
  store ptr %4, ptr %13, align 8, !tbaa !34
  store i32 %5, ptr %14, align 4, !tbaa !30
  store ptr %6, ptr %15, align 8, !tbaa !35
  store ptr %7, ptr %16, align 8, !tbaa !31
  call void @llvm.lifetime.start.p0(i64 4, ptr %17) #9
  store i32 0, ptr %17, align 4, !tbaa !30
  br label %18

18:                                               ; preds = %53, %8
  %19 = load i32, ptr %17, align 4, !tbaa !30
  %20 = load i32, ptr %14, align 4, !tbaa !30
  %21 = icmp slt i32 %19, %20
  br i1 %21, label %22, label %56

22:                                               ; preds = %18
  %23 = load ptr, ptr %12, align 8, !tbaa !34
  %24 = load i32, ptr %17, align 4, !tbaa !30
  %25 = mul nsw i32 %24, 8
  %26 = sext i32 %25 to i64
  %27 = getelementptr inbounds i8, ptr %23, i64 %26
  %28 = getelementptr inbounds i8, ptr %27, i64 2
  %29 = load i16, ptr %28, align 1, !tbaa !36
  %30 = zext i16 %29 to i32
  %31 = ashr i32 %30, 0
  %32 = trunc i32 %31 to i16
  %33 = load ptr, ptr %9, align 8, !tbaa !34
  %34 = load i32, ptr %17, align 4, !tbaa !30
  %35 = mul nsw i32 %34, 2
  %36 = sext i32 %35 to i64
  %37 = getelementptr inbounds i8, ptr %33, i64 %36
  store i16 %32, ptr %37, align 1, !tbaa !36
  %38 = load ptr, ptr %12, align 8, !tbaa !34
  %39 = load i32, ptr %17, align 4, !tbaa !30
  %40 = mul nsw i32 %39, 8
  %41 = sext i32 %40 to i64
  %42 = getelementptr inbounds i8, ptr %38, i64 %41
  %43 = getelementptr inbounds i8, ptr %42, i64 6
  %44 = load i16, ptr %43, align 1, !tbaa !36
  %45 = zext i16 %44 to i32
  %46 = ashr i32 %45, 0
  %47 = trunc i32 %46 to i16
  %48 = load ptr, ptr %10, align 8, !tbaa !34
  %49 = load i32, ptr %17, align 4, !tbaa !30
  %50 = mul nsw i32 %49, 2
  %51 = sext i32 %50 to i64
  %52 = getelementptr inbounds i8, ptr %48, i64 %51
  store i16 %47, ptr %52, align 1, !tbaa !36
  br label %53

53:                                               ; preds = %22
  %54 = load i32, ptr %17, align 4, !tbaa !30
  %55 = add nsw i32 %54, 1
  store i32 %55, ptr %17, align 4, !tbaa !30
  br label %18, !llvm.loop !68

56:                                               ; preds = %18
  call void @llvm.lifetime.end.p0(i64 4, ptr %17) #9
  ret void
}